target datalayout = "e-m:e-p270:32:32-p271:32:32-p272:64:64-i64:64-i128:128-f80:128-n8:16:32:64-S128"
target triple = "x86_64-pc-linux-gnu"

%struct.test_fixture = type { ptr, ptr }
%struct.ossl_cmp_ctx_st = type { ptr, ptr, ptr, i32, ptr, ptr, ptr, ptr, ptr, i32, ptr, ptr, i32, i32, i32, i32, i64, ptr, ptr, i32, i32, ptr, ptr, ptr, ptr, ptr, i32, i32, i32, ptr, ptr, ptr, ptr, ptr, i64, ptr, i32, i32, ptr, ptr, ptr, ptr, ptr, ptr, ptr, ptr, i32, i32, ptr, ptr, i32, ptr, ptr, i32, ptr, ptr, i32, i32, ptr, ptr, i32, i32, ptr, ptr, i32, ptr, i32, ptr, i32, ptr, ptr, ptr, ptr, ptr, ptr }

@.str = private unnamed_addr constant [31 x i8] c"../openssl/test/cmp_ctx_test.c\00", align 1
@.str.35 = private unnamed_addr constant [22 x i8] c"test_CTX_push0_policy\00", align 1
@.str.62 = private unnamed_addr constant [17 x i8] c"ERR_peek_error()\00", align 1
@.str.63 = private unnamed_addr constant [2 x i8] c"0\00", align 1
@.str.74 = private unnamed_addr constant [4 x i8] c"res\00", align 1
@.str.129 = private unnamed_addr constant [43 x i8] c"pusher did not return error on ctx == NULL\00", align 1
@.str.130 = private unnamed_addr constant [42 x i8] c"did not get default value for stack field\00", align 1
@.str.131 = private unnamed_addr constant [27 x i8] c"pushing first value failed\00", align 1
@.str.132 = private unnamed_addr constant [45 x i8] c"pushing first value did not increment number\00", align 1
@.str.133 = private unnamed_addr constant [38 x i8] c"push/sk_top first value did not match\00", align 1
@.str.134 = private unnamed_addr constant [28 x i8] c"pushing second value failed\00", align 1
@.str.135 = private unnamed_addr constant [46 x i8] c"pushing second value did not increment number\00", align 1
@.str.136 = private unnamed_addr constant [39 x i8] c"push/sk_top second value did not match\00", align 1

; Function Attrs: nounwind uwtable
define internal ptr @sk_top_policies(ptr noundef %0) #0 {
  %2 = alloca ptr, align 8
  store ptr %0, ptr %2, align 8, !tbaa !11
  %3 = load ptr, ptr %2, align 8, !tbaa !11
  %4 = getelementptr inbounds nuw %struct.ossl_cmp_ctx_st, ptr %3, i32 0, i32 59
  %5 = load ptr, ptr %4, align 8, !tbaa !89
  %6 = call ptr @ossl_check_const_POLICYINFO_sk_type(ptr noundef %5)
  %7 = load ptr, ptr %2, align 8, !tbaa !11
  %8 = getelementptr inbounds nuw %struct.ossl_cmp_ctx_st, ptr %7, i32 0, i32 59
  %9 = load ptr, ptr %8, align 8, !tbaa !89
  %10 = call ptr @ossl_check_const_POLICYINFO_sk_type(ptr noundef %9)
  %11 = call i32 @OPENSSL_sk_num(ptr noundef %10)
  %12 = sub nsw i32 %11, 1
  %13 = call ptr @OPENSSL_sk_value(ptr noundef %6, i32 noundef %12)
  ret ptr %13
}

; Function Attrs: inlinehint nounwind uwtable
define internal ptr @ossl_check_const_POLICYINFO_sk_type(ptr noundef %0) #3 {
  %2 = alloca ptr, align 8
  store ptr %0, ptr %2, align 8, !tbaa !92
  %3 = load ptr, ptr %2, align 8, !tbaa !92
  ret ptr %3
}

; Function Attrs: nounwind uwtable
define internal void @tear_down(ptr noundef %0) #0 {
  %2 = alloca ptr, align 8
  store ptr %0, ptr %2, align 8, !tbaa !15
  %3 = load ptr, ptr %2, align 8, !tbaa !15
  %4 = icmp ne ptr %3, null
  br i1 %4, label %5, label %9

5:                                                ; preds = %1
  %6 = load ptr, ptr %2, align 8, !tbaa !15
  %7 = getelementptr inbounds nuw %struct.test_fixture, ptr %6, i32 0, i32 1
  %8 = load ptr, ptr %7, align 8, !tbaa !17
  call void @OSSL_CMP_CTX_free(ptr noundef %8)
  br label %9

9:                                                ; preds = %5, %1
  %10 = load ptr, ptr %2, align 8, !tbaa !15
  call void @CRYPTO_free(ptr noundef %10, ptr noundef @.str, i32 noundef 25)
  ret void
}

; Function Attrs: nounwind uwtable
define internal i32 @execute_CTX_push0_policy(ptr noundef %0) #0 {
  %2 = alloca ptr, align 8
  %3 = alloca ptr, align 8
  %4 = alloca ptr, align 8
  %5 = alloca i32, align 4
  %6 = alloca ptr, align 8
  %7 = alloca ptr, align 8
  %8 = alloca ptr, align 8
  %9 = alloca ptr, align 8
  %10 = alloca ptr, align 8
  %11 = alloca ptr, align 8
  %12 = alloca ptr, align 8
  %13 = alloca i32, align 4
  store ptr %0, ptr %2, align 8, !tbaa !15
  call void @llvm.lifetime.start.p0(i64 8, ptr %3) #5
  %14 = load ptr, ptr %2, align 8, !tbaa !15
  %15 = getelementptr inbounds nuw %struct.test_fixture, ptr %14, i32 0, i32 1
  %16 = load ptr, ptr %15, align 8, !tbaa !17
  store ptr %16, ptr %3, align 8, !tbaa !11
  call void @llvm.lifetime.start.p0(i64 8, ptr %4) #5
  store ptr @OSSL_CMP_CTX_push0_policy, ptr %4, align 8, !tbaa !50
  call void @llvm.lifetime.start.p0(i64 4, ptr %5) #5
  %17 = load ptr, ptr %3, align 8, !tbaa !11
  %18 = getelementptr inbounds nuw %struct.ossl_cmp_ctx_st, ptr %17, i32 0, i32 59
  %19 = load ptr, ptr %18, align 8, !tbaa !89
  %20 = call ptr @ossl_check_const_POLICYINFO_sk_type(ptr noundef %19)
  %21 = call i32 @OPENSSL_sk_num(ptr noundef %20)
  store i32 %21, ptr %5, align 4, !tbaa !13
  call void @llvm.lifetime.start.p0(i64 8, ptr %6) #5
  call void @llvm.lifetime.start.p0(i64 8, ptr %7) #5
  %22 = call ptr @POLICYINFO_new()
  store ptr %22, ptr %7, align 8, !tbaa !90
  call void @llvm.lifetime.start.p0(i64 8, ptr %8) #5
  %23 = load ptr, ptr %7, align 8, !tbaa !90
  store ptr %23, ptr %8, align 8, !tbaa !90
  call void @llvm.lifetime.start.p0(i64 8, ptr %9) #5
  store ptr null, ptr %9, align 8, !tbaa !90
  call void @llvm.lifetime.start.p0(i64 8, ptr %10) #5
  %24 = call ptr @POLICYINFO_new()
  store ptr %24, ptr %10, align 8, !tbaa !90
  call void @llvm.lifetime.start.p0(i64 8, ptr %11) #5
  %25 = load ptr, ptr %10, align 8, !tbaa !90
  store ptr %25, ptr %11, align 8, !tbaa !90
  call void @llvm.lifetime.start.p0(i64 8, ptr %12) #5
  store ptr null, ptr %12, align 8, !tbaa !90
  call void @llvm.lifetime.start.p0(i64 4, ptr %13) #5
  store i32 1, ptr %13, align 4, !tbaa !13
  %26 = call i64 @ERR_peek_error()
  %27 = trunc i64 %26 to i32
  %28 = call i32 @test_int_eq(ptr noundef @.str, i32 noundef 792, ptr noundef @.str.62, ptr noundef @.str.63, i32 noundef %27, i32 noundef 0)
  %29 = icmp ne i32 %28, 0
  br i1 %29, label %31, label %30

30:                                               ; preds = %1
  store i32 0, ptr %13, align 4, !tbaa !13
  br label %31

31:                                               ; preds = %30, %1
  %32 = load ptr, ptr %4, align 8, !tbaa !50
  %33 = load ptr, ptr %8, align 8, !tbaa !90
  %34 = call i32 %32(ptr noundef null, ptr noundef %33)
  %35 = icmp ne i32 %34, 0
  br i1 %35, label %39, label %36

36:                                               ; preds = %31
  %37 = call i64 @ERR_peek_error()
  %38 = icmp eq i64 %37, 0
  br i1 %38, label %39, label %40

39:                                               ; preds = %36, %31
  call void (ptr, i32, ptr, ...) @test_error(ptr noundef @.str, i32 noundef 792, ptr noundef @.str.129)
  store i32 0, ptr %13, align 4, !tbaa !13
  br label %40

40:                                               ; preds = %39, %36
  call void @ERR_clear_error()
  %41 = load i32, ptr %5, align 4, !tbaa !13
  %42 = icmp slt i32 %41, 0
  br i1 %42, label %43, label %44

43:                                               ; preds = %40
  store i32 0, ptr %5, align 4, !tbaa !13
  br label %44

44:                                               ; preds = %43, %40
  %45 = load ptr, ptr %3, align 8, !tbaa !11
  %46 = getelementptr inbounds nuw %struct.ossl_cmp_ctx_st, ptr %45, i32 0, i32 59
  %47 = load ptr, ptr %46, align 8, !tbaa !89
  store ptr %47, ptr %6, align 8, !tbaa !92
  %48 = load ptr, ptr %6, align 8, !tbaa !92
  %49 = icmp eq ptr %48, null
  br i1 %49, label %51, label %50

50:                                               ; preds = %44
  call void (ptr, i32, ptr, ...) @test_error(ptr noundef @.str, i32 noundef 792, ptr noundef @.str.130)
  store i32 0, ptr %13, align 4, !tbaa !13
  br label %51

51:                                               ; preds = %50, %44
  %52 = load ptr, ptr %4, align 8, !tbaa !50
  %53 = load ptr, ptr %3, align 8, !tbaa !11
  %54 = load ptr, ptr %8, align 8, !tbaa !90
  %55 = call i32 %52(ptr noundef %53, ptr noundef %54)
  %56 = icmp ne i32 %55, 0
  br i1 %56, label %58, label %57

57:                                               ; preds = %51
  call void (ptr, i32, ptr, ...) @test_error(ptr noundef @.str, i32 noundef 792, ptr noundef @.str.131)
  store i32 0, ptr %13, align 4, !tbaa !13
  br label %58

58:                                               ; preds = %57, %51
  store ptr null, ptr %7, align 8, !tbaa !90
  %59 = load ptr, ptr %3, align 8, !tbaa !11
  %60 = getelementptr inbounds nuw %struct.ossl_cmp_ctx_st, ptr %59, i32 0, i32 59
  %61 = load ptr, ptr %60, align 8, !tbaa !89
  %62 = call ptr @ossl_check_const_POLICYINFO_sk_type(ptr noundef %61)
  %63 = call i32 @OPENSSL_sk_num(ptr noundef %62)
  %64 = load i32, ptr %5, align 4, !tbaa !13
  %65 = add nsw i32 %64, 1
  store i32 %65, ptr %5, align 4, !tbaa !13
  %66 = icmp ne i32 %63, %65
  br i1 %66, label %67, label %68

67:                                               ; preds = %58
  call void (ptr, i32, ptr, ...) @test_error(ptr noundef @.str, i32 noundef 792, ptr noundef @.str.132)
  store i32 0, ptr %13, align 4, !tbaa !13
  br label %68

68:                                               ; preds = %67, %58
  %69 = load ptr, ptr %3, align 8, !tbaa !11
  %70 = call ptr @sk_top_policies(ptr noundef %69)
  store ptr %70, ptr %9, align 8, !tbaa !90
  %71 = load ptr, ptr %9, align 8, !tbaa !90
  %72 = load ptr, ptr %8, align 8, !tbaa !90
  %73 = icmp ne ptr %71, %72
  br i1 %73, label %74, label %75

74:                                               ; preds = %68
  call void (ptr, i32, ptr, ...) @test_error(ptr noundef @.str, i32 noundef 792, ptr noundef @.str.133)
  store i32 0, ptr %13, align 4, !tbaa !13
  br label %75

75:                                               ; preds = %74, %68
  %76 = load ptr, ptr %4, align 8, !tbaa !50
  %77 = load ptr, ptr %3, align 8, !tbaa !11
  %78 = load ptr, ptr %11, align 8, !tbaa !90
  %79 = call i32 %76(ptr noundef %77, ptr noundef %78)
  %80 = icmp ne i32 %79, 0
  br i1 %80, label %82, label %81

81:                                               ; preds = %75
  call void (ptr, i32, ptr, ...) @test_error(ptr noundef @.str, i32 noundef 792, ptr noundef @.str.134)
  store i32 0, ptr %13, align 4, !tbaa !13
  br label %82

82:                                               ; preds = %81, %75
  store ptr null, ptr %10, align 8, !tbaa !90
  %83 = load ptr, ptr %3, align 8, !tbaa !11
  %84 = getelementptr inbounds nuw %struct.ossl_cmp_ctx_st, ptr %83, i32 0, i32 59
  %85 = load ptr, ptr %84, align 8, !tbaa !89
  %86 = call ptr @ossl_check_const_POLICYINFO_sk_type(ptr noundef %85)
  %87 = call i32 @OPENSSL_sk_num(ptr noundef %86)
  %88 = load i32, ptr %5, align 4, !tbaa !13
  %89 = add nsw i32 %88, 1
  store i32 %89, ptr %5, align 4, !tbaa !13
  %90 = icmp ne i32 %87, %89
  br i1 %90, label %91, label %92

91:                                               ; preds = %82
  call void (ptr, i32, ptr, ...) @test_error(ptr noundef @.str, i32 noundef 792, ptr noundef @.str.135)
  store i32 0, ptr %13, align 4, !tbaa !13
  br label %92

92:                                               ; preds = %91, %82
  %93 = load ptr, ptr %3, align 8, !tbaa !11
  %94 = call ptr @sk_top_policies(ptr noundef %93)
  store ptr %94, ptr %12, align 8, !tbaa !90
  %95 = load ptr, ptr %12, align 8, !tbaa !90
  %96 = load ptr, ptr %11, align 8, !tbaa !90
  %97 = icmp ne ptr %95, %96
  br i1 %97, label %98, label %99

98:                                               ; preds = %92
  call void (ptr, i32, ptr, ...) @test_error(ptr noundef @.str, i32 noundef 792, ptr noundef @.str.136)
  store i32 0, ptr %13, align 4, !tbaa !13
  br label %99

99:                                               ; preds = %98, %92
  %100 = call i64 @ERR_peek_error()
  %101 = trunc i64 %100 to i32
  %102 = call i32 @test_int_eq(ptr noundef @.str, i32 noundef 792, ptr noundef @.str.62, ptr noundef @.str.63, i32 noundef %101, i32 noundef 0)
  %103 = icmp ne i32 %102, 0
  br i1 %103, label %105, label %104

104:                                              ; preds = %99
  store i32 0, ptr %13, align 4, !tbaa !13
  br label %105

105:                                              ; preds = %104, %99
  %106 = load ptr, ptr %7, align 8, !tbaa !90
  call void @POLICYINFO_free(ptr noundef %106)
  %107 = load ptr, ptr %10, align 8, !tbaa !90
  call void @POLICYINFO_free(ptr noundef %107)
  %108 = load i32, ptr %13, align 4, !tbaa !13
  %109 = icmp ne i32 %108, 0
  %110 = zext i1 %109 to i32
  %111 = call i32 @test_true(ptr noundef @.str, i32 noundef 792, ptr noundef @.str.74, i32 noundef %110)
  call void @llvm.lifetime.end.p0(i64 4, ptr %13) #5
  call void @llvm.lifetime.end.p0(i64 8, ptr %12) #5
  call void @llvm.lifetime.end.p0(i64 8, ptr %11) #5
  call void @llvm.lifetime.end.p0(i64 8, ptr %10) #5
  call void @llvm.lifetime.end.p0(i64 8, ptr %9) #5
  call void @llvm.lifetime.end.p0(i64 8, ptr %8) #5
  call void @llvm.lifetime.end.p0(i64 8, ptr %7) #5
  call void @llvm.lifetime.end.p0(i64 8, ptr %6) #5
  call void @llvm.lifetime.end.p0(i64 4, ptr %5) #5
  call void @llvm.lifetime.end.p0(i64 8, ptr %4) #5
  call void @llvm.lifetime.end.p0(i64 8, ptr %3) #5
  ret i32 %111
}

; Function Attrs: nounwind uwtable
define internal i32 @test_CTX_push0_policy() #0 {
  %1 = alloca i32, align 4
  %2 = alloca ptr, align 8
  %3 = alloca i32, align 4
  %4 = alloca i32, align 4
  call void @llvm.lifetime.start.p0(i64 8, ptr %2) #5
  %5 = call ptr @set_up(ptr noundef @.str.35)
  store ptr %5, ptr %2, align 8, !tbaa !15
  call void @llvm.lifetime.start.p0(i64 4, ptr %3) #5
  store i32 0, ptr %3, align 4, !tbaa !13
  %6 = load ptr, ptr %2, align 8, !tbaa !15
  %7 = icmp eq ptr %6, null
  br i1 %7, label %8, label %9

8:                                                ; preds = %0
  store i32 0, ptr %1, align 4
  store i32 1, ptr %4, align 4
  br label %18

9:                                                ; preds = %0
  %10 = load ptr, ptr %2, align 8, !tbaa !15
  %11 = icmp ne ptr %10, null
  br i1 %11, label %12, label %16

12:                                               ; preds = %9
  %13 = load ptr, ptr %2, align 8, !tbaa !15
  %14 = call i32 @execute_CTX_push0_policy(ptr noundef %13)
  store i32 %14, ptr %3, align 4, !tbaa !13
  %15 = load ptr, ptr %2, align 8, !tbaa !15
  call void @tear_down(ptr noundef %15)
  br label %16

16:                                               ; preds = %12, %9
  %17 = load i32, ptr %3, align 4, !tbaa !13
  store i32 %17, ptr %1, align 4
  store i32 1, ptr %4, align 4
  br label %18

18:                                               ; preds = %16, %8
  call void @llvm.lifetime.end.p0(i64 4, ptr %3) #5
  call void @llvm.lifetime.end.p0(i64 8, ptr %2) #5
  %19 = load i32, ptr %1, align 4
  ret i32 %19
}