; Function Attrs: nounwind uwtable
define internal i32 @test_CTX_push0_policy() #1 {
  %1 = tail call fastcc ptr @set_up(ptr noundef nonnull @.str.35)
  %2 = icmp eq ptr %1, null
  br i1 %2, label %56, label %3

3:                                                ; preds = %0
  %4 = getelementptr i8, ptr %1, i64 8
  %.val = load ptr, ptr %4, align 8, !tbaa !4
  %5 = getelementptr inbounds nuw i8, ptr %.val, i64 416
  %6 = load ptr, ptr %5, align 8, !tbaa !66
  %7 = tail call i32 @OPENSSL_sk_num(ptr noundef %6) #6
  %8 = tail call ptr @POLICYINFO_new() #6
  %9 = tail call ptr @POLICYINFO_new() #6
  %10 = tail call i64 @ERR_peek_error() #6
  %11 = trunc i64 %10 to i32
  %12 = tail call i32 @test_int_eq(ptr noundef nonnull @.str, i32 noundef 792, ptr noundef nonnull @.str.62, ptr noundef nonnull @.str.63, i32 noundef %11, i32 noundef 0) #6
  %13 = tail call i32 @OSSL_CMP_CTX_push0_policy(ptr noundef null, ptr noundef %8) #6
  %.not27.i = icmp eq i32 %13, 0
  br i1 %.not27.i, label %14, label %17

14:                                               ; preds = %3
  %.not.i = icmp ne i32 %12, 0
  %spec.select.i = zext i1 %.not.i to i32
  %15 = tail call i64 @ERR_peek_error() #6
  %16 = icmp eq i64 %15, 0
  br i1 %16, label %17, label %18

17:                                               ; preds = %14, %3
  tail call void (ptr, i32, ptr, ...) @test_error(ptr noundef nonnull @.str, i32 noundef 792, ptr noundef nonnull @.str.129) #6
  br label %18

18:                                               ; preds = %17, %14
  %.1.i = phi i32 [ 0, %17 ], [ %spec.select.i, %14 ]
  tail call void @ERR_clear_error() #6
  %spec.store.select.i = tail call i32 @llvm.smax.i32(i32 %7, i32 0)
  %19 = load ptr, ptr %5, align 8, !tbaa !66
  %20 = icmp eq ptr %19, null
  br i1 %20, label %22, label %21

21:                                               ; preds = %18
  tail call void (ptr, i32, ptr, ...) @test_error(ptr noundef nonnull @.str, i32 noundef 792, ptr noundef nonnull @.str.130) #6
  br label %22

22:                                               ; preds = %21, %18
  %.2.i = phi i32 [ %.1.i, %18 ], [ 0, %21 ]
  %23 = tail call i32 @OSSL_CMP_CTX_push0_policy(ptr noundef nonnull %.val, ptr noundef %8) #6
  %.not28.i = icmp eq i32 %23, 0
  br i1 %.not28.i, label %24, label %25

24:                                               ; preds = %22
  tail call void (ptr, i32, ptr, ...) @test_error(ptr noundef nonnull @.str, i32 noundef 792, ptr noundef nonnull @.str.131) #6
  br label %25

25:                                               ; preds = %24, %22
  %.3.i = phi i32 [ %.2.i, %22 ], [ 0, %24 ]
  %26 = load ptr, ptr %5, align 8, !tbaa !66
  %27 = tail call i32 @OPENSSL_sk_num(ptr noundef %26) #6
  %28 = add nuw nsw i32 %spec.store.select.i, 1
  %.not29.i = icmp eq i32 %27, %28
  br i1 %.not29.i, label %30, label %29

29:                                               ; preds = %25
  tail call void (ptr, i32, ptr, ...) @test_error(ptr noundef nonnull @.str, i32 noundef 792, ptr noundef nonnull @.str.132) #6
  br label %30

30:                                               ; preds = %29, %25
  %.4.i = phi i32 [ 0, %29 ], [ %.3.i, %25 ]
  %.val.i = load ptr, ptr %5, align 8, !tbaa !66
  %31 = tail call i32 @OPENSSL_sk_num(ptr noundef %.val.i) #6
  %32 = add nsw i32 %31, -1
  %33 = tail call ptr @OPENSSL_sk_value(ptr noundef %.val.i, i32 noundef %32) #6
  %.not30.i = icmp eq ptr %33, %8
  br i1 %.not30.i, label %35, label %34

34:                                               ; preds = %30
  tail call void (ptr, i32, ptr, ...) @test_error(ptr noundef nonnull @.str, i32 noundef 792, ptr noundef nonnull @.str.133) #6
  br label %35

35:                                               ; preds = %34, %30
  %.5.i = phi i32 [ 0, %34 ], [ %.4.i, %30 ]
  %36 = tail call i32 @OSSL_CMP_CTX_push0_policy(ptr noundef nonnull %.val, ptr noundef %9) #6
  %.not31.i = icmp eq i32 %36, 0
  br i1 %.not31.i, label %37, label %38

37:                                               ; preds = %35
  tail call void (ptr, i32, ptr, ...) @test_error(ptr noundef nonnull @.str, i32 noundef 792, ptr noundef nonnull @.str.134) #6
  br label %38

38:                                               ; preds = %37, %35
  %.6.i = phi i32 [ %.5.i, %35 ], [ 0, %37 ]
  %39 = load ptr, ptr %5, align 8, !tbaa !66
  %40 = tail call i32 @OPENSSL_sk_num(ptr noundef %39) #6
  %41 = add nuw nsw i32 %spec.store.select.i, 2
  %.not32.i = icmp eq i32 %40, %41
  br i1 %.not32.i, label %43, label %42

42:                                               ; preds = %38
  tail call void (ptr, i32, ptr, ...) @test_error(ptr noundef nonnull @.str, i32 noundef 792, ptr noundef nonnull @.str.135) #6
  br label %43

43:                                               ; preds = %42, %38
  %.7.i = phi i32 [ 0, %42 ], [ %.6.i, %38 ]
  %.val36.i = load ptr, ptr %5, align 8, !tbaa !66
  %44 = tail call i32 @OPENSSL_sk_num(ptr noundef %.val36.i) #6
  %45 = add nsw i32 %44, -1
  %46 = tail call ptr @OPENSSL_sk_value(ptr noundef %.val36.i, i32 noundef %45) #6
  %.not33.i = icmp eq ptr %46, %9
  br i1 %.not33.i, label %tear_down.exit, label %47

47:                                               ; preds = %43
  tail call void (ptr, i32, ptr, ...) @test_error(ptr noundef nonnull @.str, i32 noundef 792, ptr noundef nonnull @.str.136) #6
  br label %tear_down.exit

tear_down.exit:                                   ; preds = %43, %47
  %.8.i = phi i32 [ 0, %47 ], [ %.7.i, %43 ]
  %48 = tail call i64 @ERR_peek_error() #6
  %49 = trunc i64 %48 to i32
  %50 = tail call i32 @test_int_eq(ptr noundef nonnull @.str, i32 noundef 792, ptr noundef nonnull @.str.62, ptr noundef nonnull @.str.63, i32 noundef %49, i32 noundef 0) #6
  %.not34.i = icmp ne i32 %50, 0
  tail call void @POLICYINFO_free(ptr noundef null) #6
  tail call void @POLICYINFO_free(ptr noundef null) #6
  %51 = icmp ne i32 %.8.i, 0
  %52 = select i1 %.not34.i, i1 %51, i1 false
  %53 = zext i1 %52 to i32
  %54 = tail call i32 @test_true(ptr noundef nonnull @.str, i32 noundef 792, ptr noundef nonnull @.str.74, i32 noundef %53) #6
  %55 = load ptr, ptr %4, align 8, !tbaa !4
  tail call void @OSSL_CMP_CTX_free(ptr noundef %55) #6
  tail call void @CRYPTO_free(ptr noundef nonnull %1, ptr noundef nonnull @.str, i32 noundef 25) #6
  br label %56

56:                                               ; preds = %0, %tear_down.exit
  %.05 = phi i32 [ %54, %tear_down.exit ], [ 0, %0 ]
  ret i32 %.05
}